target datalayout = "e-m:e-p270:32:32-p271:32:32-p272:64:64-i64:64-i128:128-f80:128-n8:16:32:64-S128"
target triple = "x86_64-pc-linux-gnu"

@_ZTV18b3TriangleCallback = dso_local unnamed_addr constant { [5 x ptr] } { [5 x ptr] [ptr null, ptr @_ZTI18b3TriangleCallback, ptr @_ZN18b3TriangleCallbackD1Ev, ptr @_ZN18b3TriangleCallbackD0Ev, ptr @__cxa_pure_virtual] }, align 8
@_ZTI18b3TriangleCallback = dso_local constant { ptr, ptr } { ptr getelementptr inbounds (ptr, ptr @_ZTVN10__cxxabiv117__class_type_infoE, i64 2), ptr @_ZTS18b3TriangleCallback }, align 8
@_ZTVN10__cxxabiv117__class_type_infoE = external global [0 x ptr]
@_ZTS18b3TriangleCallback = dso_local constant [21 x i8] c"18b3TriangleCallback\00", align 1
@_ZTV31b3InternalTriangleIndexCallback = dso_local unnamed_addr constant { [5 x ptr] } { [5 x ptr] [ptr null, ptr @_ZTI31b3InternalTriangleIndexCallback, ptr @_ZN31b3InternalTriangleIndexCallbackD1Ev, ptr @_ZN31b3InternalTriangleIndexCallbackD0Ev, ptr @__cxa_pure_virtual] }, align 8
@_ZTI31b3InternalTriangleIndexCallback = dso_local constant { ptr, ptr } { ptr getelementptr inbounds (ptr, ptr @_ZTVN10__cxxabiv117__class_type_infoE, i64 2), ptr @_ZTS31b3InternalTriangleIndexCallback }, align 8
@_ZTS31b3InternalTriangleIndexCallback = dso_local constant [34 x i8] c"31b3InternalTriangleIndexCallback\00", align 1

@_ZN18b3TriangleCallbackD1Ev = dso_local unnamed_addr alias void (ptr), ptr @_ZN18b3TriangleCallbackD2Ev
@_ZN31b3InternalTriangleIndexCallbackD1Ev = dso_local unnamed_addr alias void (ptr), ptr @_ZN31b3InternalTriangleIndexCallbackD2Ev

; Function Attrs: mustprogress nounwind uwtable
define dso_local void @_ZN18b3TriangleCallbackD2Ev(ptr noundef nonnull align 8 dereferenceable(8) %0) unnamed_addr #0 align 2 {
  %2 = alloca ptr, align 8
  store ptr %0, ptr %2, align 8, !tbaa !4
  ret void
}

; Function Attrs: mustprogress nounwind uwtable
define dso_local void @_ZN18b3TriangleCallbackD0Ev(ptr noundef nonnull align 8 dereferenceable(8) %0) unnamed_addr #0 align 2 {
  %2 = alloca ptr, align 8
  store ptr %0, ptr %2, align 8, !tbaa !4
  call void @llvm.trap() #2
  unreachable
}

; Function Attrs: cold noreturn nounwind memory(inaccessiblemem: write)
declare void @llvm.trap() #1

; Function Attrs: mustprogress nounwind uwtable
define dso_local void @_ZN31b3InternalTriangleIndexCallbackD2Ev(ptr noundef nonnull align 8 dereferenceable(8) %0) unnamed_addr #0 align 2 {
  %2 = alloca ptr, align 8
  store ptr %0, ptr %2, align 8, !tbaa !9
  ret void
}

; Function Attrs: mustprogress nounwind uwtable
define dso_local void @_ZN31b3InternalTriangleIndexCallbackD0Ev(ptr noundef nonnull align 8 dereferenceable(8) %0) unnamed_addr #0 align 2 {
  %2 = alloca ptr, align 8
  store ptr %0, ptr %2, align 8, !tbaa !9
  call void @llvm.trap() #2
  unreachable
}

declare void @__cxa_pure_virtual() unnamed_addr


!llvm.module.flags = !{!0, !1, !2, !3}

!0 = !{i32 1, !"wchar_size", i32 4}
!1 = !{i32 8, !"PIC Level", i32 2}
!2 = !{i32 7, !"PIE Level", i32 2}
!3 = !{i32 7, !"uwtable", i32 2}
!4 = !{!5, !5, i64 0}
!5 = !{!"p1 _ZTS18b3TriangleCallback", !6, i64 0}
!6 = !{!"any pointer", !7, i64 0}
!7 = !{!"omnipotent char", !8, i64 0}
!8 = !{!"Simple C++ TBAA"}
!9 = !{!10, !10, i64 0}
!10 = !{!"p1 _ZTS31b3InternalTriangleIndexCallback", !6, i64 0}
